target datalayout = "e-m:e-p270:32:32-p271:32:32-p272:64:64-i64:64-i128:128-f80:128-n8:16:32:64-S128"
target triple = "x86_64-pc-linux-gnu"

%struct._zend_executor_globals = type { %struct._zval_struct, %struct._zval_struct, [32 x ptr], ptr, ptr, %struct._zend_array, %struct._zend_array, ptr, i32, i32, ptr, ptr, ptr, ptr, ptr, ptr, i64, ptr, ptr, i32, i32, i64, i32, i32, i32, i8, i8, %struct.zend_atomic_bool_s, %struct.zend_atomic_bool_s, ptr, i64, ptr, ptr, %struct._zend_array, %struct._zend_array, i32, i8, %struct._zval_struct, %struct._zval_struct, %struct._zend_stack, %struct._zend_stack, %struct._zend_stack, ptr, i32, i32, i64, ptr, ptr, ptr, %struct._zend_objects_store, ptr, ptr, ptr, [3 x %struct._zend_op], ptr, i8, i8, i64, i32, i32, ptr, [16 x %struct._HashTableIterator], ptr, %union._zend_function, %struct._zend_op, %struct._zend_array, i64, %struct.zend_get_gc_buffer, ptr, ptr, ptr, i64, i8, i32, ptr, ptr, i64, %struct._zend_call_stack, i64, i64, [6 x ptr] }
%struct.zend_atomic_bool_s = type { i8 }
%struct._zval_struct = type { %union._zend_value, %union.anon, %union.anon.2 }
%union._zend_value = type { i64 }
%union.anon = type { i32 }
%union.anon.2 = type { i32 }
%struct._zend_stack = type { i32, i32, i32, ptr }
%struct._zend_objects_store = type { ptr, i32, i32, i32 }
%struct._HashTableIterator = type { ptr, i32, i32 }
%union._zend_function = type { %struct._zend_op_array }
%struct._zend_op_array = type { i8, [3 x i8], i32, ptr, ptr, ptr, i32, i32, ptr, ptr, ptr, ptr, i32, i32, i32, i32, ptr, ptr, ptr, ptr, ptr, i32, i32, ptr, ptr, ptr, i32, i32, i32, i32, ptr, ptr, [6 x ptr] }
%struct._zend_op = type { ptr, %union._znode_op, %union._znode_op, %union._znode_op, i32, i32, i8, i8, i8, i8 }
%union._znode_op = type { i32 }
%struct._zend_array = type { %struct._zend_refcounted_h, %union.anon.4, i32, %union.anon.6, i32, i32, i32, i32, i64, ptr }
%struct._zend_refcounted_h = type { i32, %union.anon.3 }
%union.anon.3 = type { i32 }
%union.anon.4 = type { i32 }
%union.anon.6 = type { ptr }
%struct.zend_get_gc_buffer = type { ptr, ptr, ptr }
%struct._zend_call_stack = type { ptr, i64 }
%struct._zend_execute_data = type { ptr, ptr, ptr, ptr, %struct._zval_struct, ptr, ptr, ptr, ptr }
%struct._xmlNode = type { ptr, i32, ptr, ptr, ptr, ptr, ptr, ptr, ptr, ptr, ptr, ptr, ptr, ptr, i16, i16 }
%struct._zend_string = type { %struct._zend_refcounted_h, i64, i64, [1 x i8] }
%struct._xmlAttr = type { ptr, i32, ptr, ptr, ptr, ptr, ptr, ptr, ptr, ptr, i32, ptr }
%struct._dom_object = type { ptr, ptr, ptr, %struct._zend_object }
%struct._zend_object = type { %struct._zend_refcounted_h, i32, ptr, ptr, ptr, [1 x %struct._zval_struct] }
%struct._zend_class_entry = type { i8, ptr, %union.anon.8, i32, i32, i32, i32, ptr, ptr, ptr, %struct._zend_array, %struct._zend_array, %struct._zend_array, ptr, ptr, ptr, ptr, ptr, ptr, ptr, ptr, ptr, ptr, ptr, ptr, ptr, ptr, ptr, ptr, ptr, ptr, ptr, %union.anon.9, ptr, ptr, ptr, ptr, i32, i32, %union.anon.10, ptr, ptr, ptr, ptr, i32, ptr, ptr, %union.anon.11 }
%union.anon.8 = type { ptr }
%union.anon.9 = type { ptr }
%union.anon.10 = type { ptr }
%union.anon.11 = type { %struct.anon.12 }
%struct.anon.12 = type { ptr, i32, i32 }
%struct._php_libxml_node_ptr = type { ptr, i32, ptr }

@executor_globals = external global %struct._zend_executor_globals, align 8
@.str.5 = private unnamed_addr constant [18 x i8] c"Couldn't fetch %s\00", align 1
@.str.10 = private unnamed_addr constant [2 x i8] c"O\00", align 1
@dom_attr_class_entry = external global ptr, align 8

; Function Attrs: nounwind uwtable
define internal ptr @php_dom_obj_from_obj(ptr noundef %0) #0 {
  %2 = alloca ptr, align 8
  store ptr %0, ptr %2, align 8
  %3 = load ptr, ptr %2, align 8
  %4 = getelementptr inbounds i8, ptr %3, i64 -24
  ret ptr %4
}

; Function Attrs: nounwind uwtable
define hidden void @zim_DOMElement_setAttributeNode(ptr noundef %0, ptr noundef %1) #0 {
  %3 = alloca ptr, align 8
  %4 = alloca ptr, align 8
  %5 = alloca ptr, align 8
  %6 = alloca ptr, align 8
  %7 = alloca ptr, align 8
  %8 = alloca ptr, align 8
  %9 = alloca ptr, align 8
  %10 = alloca ptr, align 8
  %11 = alloca ptr, align 8
  %12 = alloca ptr, align 8
  %13 = alloca i32, align 4
  store ptr %0, ptr %3, align 8
  store ptr %1, ptr %4, align 8
  store ptr null, ptr %9, align 8
  %14 = load ptr, ptr %3, align 8
  %15 = getelementptr inbounds %struct._zend_execute_data, ptr %14, i32 0, i32 4
  store ptr %15, ptr %5, align 8
  %16 = load ptr, ptr %3, align 8
  %17 = getelementptr inbounds %struct._zend_execute_data, ptr %16, i32 0, i32 4
  %18 = getelementptr inbounds %struct._zval_struct, ptr %17, i32 0, i32 2
  %19 = load i32, ptr %18, align 4
  %20 = load ptr, ptr @dom_attr_class_entry, align 8
  %21 = call i32 (i32, ptr, ...) @zend_parse_parameters(i32 noundef %19, ptr noundef @.str.10, ptr noundef %6, ptr noundef %20)
  %22 = icmp eq i32 %21, -1
  br i1 %22, label %23, label %28

23:                                               ; preds = %2
  br label %24

24:                                               ; preds = %23
  %25 = load ptr, ptr getelementptr inbounds (%struct._zend_executor_globals, ptr @executor_globals, i32 0, i32 50), align 8
  %26 = icmp ne ptr %25, null
  call void @llvm.assume(i1 %26)
  br label %197

27:                                               ; No predecessors!
  br label %28

28:                                               ; preds = %27, %2
  %29 = load ptr, ptr %5, align 8
  %30 = getelementptr inbounds %struct._zval_struct, ptr %29, i32 0, i32 0
  %31 = load ptr, ptr %30, align 8
  %32 = call ptr @php_dom_obj_from_obj(ptr noundef %31)
  store ptr %32, ptr %10, align 8
  %33 = load ptr, ptr %10, align 8
  %34 = getelementptr inbounds %struct._dom_object, ptr %33, i32 0, i32 0
  %35 = load ptr, ptr %34, align 8
  %36 = icmp eq ptr %35, null
  %37 = xor i1 %36, true
  %38 = xor i1 %37, true
  %39 = zext i1 %38 to i32
  %40 = sext i32 %39 to i64
  %41 = icmp ne i64 %40, 0
  br i1 %41, label %42, label %55

42:                                               ; preds = %28
  %43 = load ptr, ptr %10, align 8
  %44 = getelementptr inbounds %struct._dom_object, ptr %43, i32 0, i32 3
  %45 = getelementptr inbounds %struct._zend_object, ptr %44, i32 0, i32 2
  %46 = load ptr, ptr %45, align 8
  %47 = getelementptr inbounds %struct._zend_class_entry, ptr %46, i32 0, i32 1
  %48 = load ptr, ptr %47, align 8
  %49 = getelementptr inbounds %struct._zend_string, ptr %48, i32 0, i32 3
  %50 = getelementptr inbounds [1 x i8], ptr %49, i64 0, i64 0
  call void (ptr, ptr, ...) @zend_throw_error(ptr noundef null, ptr noundef @.str.5, ptr noundef %50)
  br label %51

51:                                               ; preds = %42
  %52 = load ptr, ptr getelementptr inbounds (%struct._zend_executor_globals, ptr @executor_globals, i32 0, i32 50), align 8
  %53 = icmp ne ptr %52, null
  call void @llvm.assume(i1 %53)
  br label %197

54:                                               ; No predecessors!
  br label %55

55:                                               ; preds = %54, %28
  %56 = load ptr, ptr %10, align 8
  %57 = getelementptr inbounds %struct._dom_object, ptr %56, i32 0, i32 0
  %58 = load ptr, ptr %57, align 8
  %59 = getelementptr inbounds %struct._php_libxml_node_ptr, ptr %58, i32 0, i32 0
  %60 = load ptr, ptr %59, align 8
  store ptr %60, ptr %7, align 8
  %61 = load ptr, ptr %6, align 8
  %62 = getelementptr inbounds %struct._zval_struct, ptr %61, i32 0, i32 0
  %63 = load ptr, ptr %62, align 8
  %64 = call ptr @php_dom_obj_from_obj(ptr noundef %63)
  store ptr %64, ptr %11, align 8
  %65 = load ptr, ptr %11, align 8
  %66 = getelementptr inbounds %struct._dom_object, ptr %65, i32 0, i32 0
  %67 = load ptr, ptr %66, align 8
  %68 = icmp eq ptr %67, null
  %69 = xor i1 %68, true
  %70 = xor i1 %69, true
  %71 = zext i1 %70 to i32
  %72 = sext i32 %71 to i64
  %73 = icmp ne i64 %72, 0
  br i1 %73, label %74, label %87

74:                                               ; preds = %55
  %75 = load ptr, ptr %11, align 8
  %76 = getelementptr inbounds %struct._dom_object, ptr %75, i32 0, i32 3
  %77 = getelementptr inbounds %struct._zend_object, ptr %76, i32 0, i32 2
  %78 = load ptr, ptr %77, align 8
  %79 = getelementptr inbounds %struct._zend_class_entry, ptr %78, i32 0, i32 1
  %80 = load ptr, ptr %79, align 8
  %81 = getelementptr inbounds %struct._zend_string, ptr %80, i32 0, i32 3
  %82 = getelementptr inbounds [1 x i8], ptr %81, i64 0, i64 0
  call void (ptr, ptr, ...) @zend_throw_error(ptr noundef null, ptr noundef @.str.5, ptr noundef %82)
  br label %83

83:                                               ; preds = %74
  %84 = load ptr, ptr getelementptr inbounds (%struct._zend_executor_globals, ptr @executor_globals, i32 0, i32 50), align 8
  %85 = icmp ne ptr %84, null
  call void @llvm.assume(i1 %85)
  br label %197

86:                                               ; No predecessors!
  br label %87

87:                                               ; preds = %86, %55
  %88 = load ptr, ptr %11, align 8
  %89 = getelementptr inbounds %struct._dom_object, ptr %88, i32 0, i32 0
  %90 = load ptr, ptr %89, align 8
  %91 = getelementptr inbounds %struct._php_libxml_node_ptr, ptr %90, i32 0, i32 0
  %92 = load ptr, ptr %91, align 8
  store ptr %92, ptr %8, align 8
  %93 = load ptr, ptr %8, align 8
  %94 = getelementptr inbounds %struct._xmlAttr, ptr %93, i32 0, i32 1
  %95 = load i32, ptr %94, align 8
  %96 = icmp eq i32 %95, 2
  call void @llvm.assume(i1 %96)
  %97 = load ptr, ptr %8, align 8
  %98 = getelementptr inbounds %struct._xmlAttr, ptr %97, i32 0, i32 8
  %99 = load ptr, ptr %98, align 8
  %100 = icmp eq ptr %99, null
  br i1 %100, label %120, label %101

101:                                              ; preds = %87
  %102 = load ptr, ptr %8, align 8
  %103 = getelementptr inbounds %struct._xmlAttr, ptr %102, i32 0, i32 8
  %104 = load ptr, ptr %103, align 8
  %105 = load ptr, ptr %7, align 8
  %106 = getelementptr inbounds %struct._xmlNode, ptr %105, i32 0, i32 8
  %107 = load ptr, ptr %106, align 8
  %108 = icmp eq ptr %104, %107
  br i1 %108, label %120, label %109

109:                                              ; preds = %101
  %110 = load ptr, ptr %10, align 8
  %111 = getelementptr inbounds %struct._dom_object, ptr %110, i32 0, i32 1
  %112 = load ptr, ptr %111, align 8
  %113 = call i32 @dom_get_strict_error(ptr noundef %112)
  call void @php_dom_throw_error(i32 noundef 4, i32 noundef %113)
  br label %114

114:                                              ; preds = %109
  br label %115

115:                                              ; preds = %114
  %116 = load ptr, ptr %4, align 8
  %117 = getelementptr inbounds %struct._zval_struct, ptr %116, i32 0, i32 1
  store i32 2, ptr %117, align 8
  br label %118

118:                                              ; preds = %115
  br label %197

119:                                              ; No predecessors!
  br label %120

120:                                              ; preds = %119, %101, %87
  %121 = load ptr, ptr %7, align 8
  %122 = load ptr, ptr %8, align 8
  %123 = getelementptr inbounds %struct._xmlAttr, ptr %122, i32 0, i32 2
  %124 = load ptr, ptr %123, align 8
  %125 = call ptr @xmlHasProp(ptr noundef %121, ptr noundef %124)
  store ptr %125, ptr %9, align 8
  %126 = load ptr, ptr %9, align 8
  %127 = icmp ne ptr %126, null
  br i1 %127, label %128, label %154

128:                                              ; preds = %120
  %129 = load ptr, ptr %9, align 8
  %130 = getelementptr inbounds %struct._xmlAttr, ptr %129, i32 0, i32 1
  %131 = load i32, ptr %130, align 8
  %132 = icmp ne i32 %131, 16
  br i1 %132, label %133, label %154

133:                                              ; preds = %128
  %134 = load ptr, ptr %9, align 8
  %135 = call ptr @php_dom_object_get_data(ptr noundef %134)
  store ptr %135, ptr %12, align 8
  %136 = icmp ne ptr %135, null
  br i1 %136, label %137, label %152

137:                                              ; preds = %133
  %138 = load ptr, ptr %12, align 8
  %139 = getelementptr inbounds %struct._dom_object, ptr %138, i32 0, i32 0
  %140 = load ptr, ptr %139, align 8
  %141 = getelementptr inbounds %struct._php_libxml_node_ptr, ptr %140, i32 0, i32 0
  %142 = load ptr, ptr %141, align 8
  %143 = load ptr, ptr %8, align 8
  %144 = icmp eq ptr %142, %143
  br i1 %144, label %145, label %152

145:                                              ; preds = %137
  br label %146

146:                                              ; preds = %145
  br label %147

147:                                              ; preds = %146
  %148 = load ptr, ptr %4, align 8
  %149 = getelementptr inbounds %struct._zval_struct, ptr %148, i32 0, i32 1
  store i32 1, ptr %149, align 8
  br label %150

150:                                              ; preds = %147
  br label %197

151:                                              ; No predecessors!
  br label %152

152:                                              ; preds = %151, %137, %133
  %153 = load ptr, ptr %9, align 8
  call void @xmlUnlinkNode(ptr noundef %153)
  br label %154

154:                                              ; preds = %152, %128, %120
  %155 = load ptr, ptr %8, align 8
  %156 = getelementptr inbounds %struct._xmlAttr, ptr %155, i32 0, i32 5
  %157 = load ptr, ptr %156, align 8
  %158 = icmp ne ptr %157, null
  br i1 %158, label %159, label %161

159:                                              ; preds = %154
  %160 = load ptr, ptr %8, align 8
  call void @xmlUnlinkNode(ptr noundef %160)
  br label %161

161:                                              ; preds = %159, %154
  %162 = load ptr, ptr %8, align 8
  %163 = getelementptr inbounds %struct._xmlAttr, ptr %162, i32 0, i32 8
  %164 = load ptr, ptr %163, align 8
  %165 = icmp eq ptr %164, null
  br i1 %165, label %166, label %179

166:                                              ; preds = %161
  %167 = load ptr, ptr %7, align 8
  %168 = getelementptr inbounds %struct._xmlNode, ptr %167, i32 0, i32 8
  %169 = load ptr, ptr %168, align 8
  %170 = icmp ne ptr %169, null
  br i1 %170, label %171, label %179

171:                                              ; preds = %166
  %172 = load ptr, ptr %10, align 8
  %173 = getelementptr inbounds %struct._dom_object, ptr %172, i32 0, i32 1
  %174 = load ptr, ptr %173, align 8
  %175 = load ptr, ptr %11, align 8
  %176 = getelementptr inbounds %struct._dom_object, ptr %175, i32 0, i32 1
  store ptr %174, ptr %176, align 8
  %177 = load ptr, ptr %11, align 8
  %178 = call i32 @php_libxml_increment_doc_ref(ptr noundef %177, ptr noundef null)
  br label %179

179:                                              ; preds = %171, %166, %161
  %180 = load ptr, ptr %7, align 8
  %181 = load ptr, ptr %8, align 8
  %182 = call ptr @xmlAddChild(ptr noundef %180, ptr noundef %181)
  %183 = load ptr, ptr %8, align 8
  call void @php_dom_reconcile_attribute_namespace_after_insertion(ptr noundef %183)
  %184 = load ptr, ptr %9, align 8
  %185 = icmp ne ptr %184, null
  br i1 %185, label %186, label %192

186:                                              ; preds = %179
  %187 = load ptr, ptr %9, align 8
  %188 = load ptr, ptr %4, align 8
  %189 = load ptr, ptr %10, align 8
  %190 = call zeroext i1 @php_dom_create_object(ptr noundef %187, ptr noundef %188, ptr noundef %189)
  %191 = zext i1 %190 to i32
  store i32 %191, ptr %13, align 4
  br label %197

192:                                              ; preds = %179
  br label %193

193:                                              ; preds = %192
  %194 = load ptr, ptr %4, align 8
  %195 = getelementptr inbounds %struct._zval_struct, ptr %194, i32 0, i32 1
  store i32 1, ptr %195, align 8
  br label %196

196:                                              ; preds = %193
  br label %197

197:                                              ; preds = %196, %186, %150, %118, %83, %51, %24
  ret void
}