; Function Attrs: nounwind uwtable
define hidden void @zim_DOMElement_setAttributeNode(ptr nocapture noundef readonly %0, ptr noundef %1) local_unnamed_addr #0 {
  %3 = alloca ptr, align 8
  %4 = getelementptr inbounds i8, ptr %0, i64 44
  %5 = load i32, ptr %4, align 4
  %6 = load ptr, ptr @dom_attr_class_entry, align 8
  %7 = call i32 (i32, ptr, ...) @zend_parse_parameters(i32 noundef %5, ptr noundef nonnull @.str.10, ptr noundef nonnull %3, ptr noundef %6) #8
  %8 = icmp eq i32 %7, -1
  br i1 %8, label %9, label %12

9:                                                ; preds = %2
  %10 = load ptr, ptr getelementptr inbounds (%struct._zend_executor_globals, ptr @executor_globals, i64 0, i32 50), align 8
  %11 = icmp ne ptr %10, null
  call void @llvm.assume(i1 %11)
  br label %95

12:                                               ; preds = %2
  %13 = getelementptr inbounds i8, ptr %0, i64 32
  %14 = load ptr, ptr %13, align 8
  %15 = getelementptr inbounds i8, ptr %14, i64 -24
  %16 = load ptr, ptr %15, align 8
  %17 = icmp eq ptr %16, null
  br i1 %17, label %18, label %26

18:                                               ; preds = %12
  %19 = getelementptr inbounds i8, ptr %14, i64 16
  %20 = load ptr, ptr %19, align 8
  %21 = getelementptr inbounds i8, ptr %20, i64 8
  %22 = load ptr, ptr %21, align 8
  %23 = getelementptr inbounds i8, ptr %22, i64 24
  call void (ptr, ptr, ...) @zend_throw_error(ptr noundef null, ptr noundef nonnull @.str.5, ptr noundef nonnull %23) #8
  %24 = load ptr, ptr getelementptr inbounds (%struct._zend_executor_globals, ptr @executor_globals, i64 0, i32 50), align 8
  %25 = icmp ne ptr %24, null
  call void @llvm.assume(i1 %25)
  br label %95

26:                                               ; preds = %12
  %27 = load ptr, ptr %16, align 8
  %28 = load ptr, ptr %3, align 8
  %29 = load ptr, ptr %28, align 8
  %30 = getelementptr inbounds i8, ptr %29, i64 -24
  %31 = load ptr, ptr %30, align 8
  %32 = icmp eq ptr %31, null
  br i1 %32, label %33, label %41

33:                                               ; preds = %26
  %34 = getelementptr inbounds i8, ptr %29, i64 16
  %35 = load ptr, ptr %34, align 8
  %36 = getelementptr inbounds i8, ptr %35, i64 8
  %37 = load ptr, ptr %36, align 8
  %38 = getelementptr inbounds i8, ptr %37, i64 24
  call void (ptr, ptr, ...) @zend_throw_error(ptr noundef null, ptr noundef nonnull @.str.5, ptr noundef nonnull %38) #8
  %39 = load ptr, ptr getelementptr inbounds (%struct._zend_executor_globals, ptr @executor_globals, i64 0, i32 50), align 8
  %40 = icmp ne ptr %39, null
  call void @llvm.assume(i1 %40)
  br label %95

41:                                               ; preds = %26
  %42 = load ptr, ptr %31, align 8
  %43 = getelementptr inbounds i8, ptr %42, i64 8
  %44 = load i32, ptr %43, align 8
  %45 = icmp eq i32 %44, 2
  call void @llvm.assume(i1 %45)
  %46 = getelementptr inbounds i8, ptr %42, i64 64
  %47 = load ptr, ptr %46, align 8
  %48 = icmp eq ptr %47, null
  br i1 %48, label %58, label %49

49:                                               ; preds = %41
  %50 = getelementptr inbounds i8, ptr %27, i64 64
  %51 = load ptr, ptr %50, align 8
  %52 = icmp eq ptr %47, %51
  br i1 %52, label %58, label %53

53:                                               ; preds = %49
  %54 = getelementptr inbounds i8, ptr %14, i64 -16
  %55 = load ptr, ptr %54, align 8
  %56 = call i32 @dom_get_strict_error(ptr noundef %55) #8
  call void @php_dom_throw_error(i32 noundef 4, i32 noundef %56) #8
  %57 = getelementptr inbounds i8, ptr %1, i64 8
  store i32 2, ptr %57, align 8
  br label %95

58:                                               ; preds = %49, %41
  %59 = getelementptr inbounds i8, ptr %42, i64 16
  %60 = load ptr, ptr %59, align 8
  %61 = call ptr @xmlHasProp(ptr noundef %27, ptr noundef %60) #8
  %.not = icmp eq ptr %61, null
  br i1 %.not, label %74, label %62

62:                                               ; preds = %58
  %63 = getelementptr inbounds i8, ptr %61, i64 8
  %64 = load i32, ptr %63, align 8
  %.not43 = icmp eq i32 %64, 16
  br i1 %.not43, label %74, label %65

65:                                               ; preds = %62
  %66 = call ptr @php_dom_object_get_data(ptr noundef nonnull %61) #8
  %.not44 = icmp eq ptr %66, null
  br i1 %.not44, label %73, label %67

67:                                               ; preds = %65
  %68 = load ptr, ptr %66, align 8
  %69 = load ptr, ptr %68, align 8
  %70 = icmp eq ptr %69, %42
  br i1 %70, label %71, label %73

71:                                               ; preds = %67
  %72 = getelementptr inbounds i8, ptr %1, i64 8
  store i32 1, ptr %72, align 8
  br label %95

73:                                               ; preds = %67, %65
  call void @xmlUnlinkNode(ptr noundef nonnull %61) #8
  br label %74

74:                                               ; preds = %73, %62, %58
  %75 = getelementptr inbounds i8, ptr %42, i64 40
  %76 = load ptr, ptr %75, align 8
  %.not45 = icmp eq ptr %76, null
  br i1 %.not45, label %78, label %77

77:                                               ; preds = %74
  call void @xmlUnlinkNode(ptr noundef nonnull %42) #8
  br label %78

78:                                               ; preds = %77, %74
  %79 = load ptr, ptr %46, align 8
  %80 = icmp eq ptr %79, null
  br i1 %80, label %81, label %89

81:                                               ; preds = %78
  %82 = getelementptr inbounds i8, ptr %27, i64 64
  %83 = load ptr, ptr %82, align 8
  %.not46 = icmp eq ptr %83, null
  br i1 %.not46, label %89, label %84

84:                                               ; preds = %81
  %85 = getelementptr inbounds i8, ptr %14, i64 -16
  %86 = load ptr, ptr %85, align 8
  %87 = getelementptr inbounds i8, ptr %29, i64 -16
  store ptr %86, ptr %87, align 8
  %88 = call i32 @php_libxml_increment_doc_ref(ptr noundef nonnull %30, ptr noundef null) #8
  br label %89

89:                                               ; preds = %84, %81, %78
  %90 = call ptr @xmlAddChild(ptr noundef %27, ptr noundef nonnull %42) #8
  call void @php_dom_reconcile_attribute_namespace_after_insertion(ptr noundef nonnull %42) #8
  br i1 %.not, label %93, label %91

91:                                               ; preds = %89
  %92 = call zeroext i1 @php_dom_create_object(ptr noundef nonnull %61, ptr noundef %1, ptr noundef nonnull %15) #8
  br label %95

93:                                               ; preds = %89
  %94 = getelementptr inbounds i8, ptr %1, i64 8
  store i32 1, ptr %94, align 8
  br label %95

95:                                               ; preds = %93, %91, %71, %53, %33, %18, %9
  ret void
}